
There are no discarded input sections

Memory Configuration

Name             Origin             Length             Attributes
*default*        0x0000000000000000 0xffffffffffffffff

Linker script and memory map

LOAD start.o
LOAD swtch.o
LOAD trap.o
LOAD trap_c.o
LOAD uart.o
LOAD plic.o
LOAD fs.o
LOAD main.o
                0x0000000080000000                . = 0x80000000

.text           0x0000000080000000     0x3d80
 *(.text*)
 .text          0x0000000080000000       0x3e start.o
                0x0000000080000000                _start
 .text          0x000000008000003e       0xd8 swtch.o
                0x000000008000003e                swtch
                0x00000000800000c6                trampoline
                0x0000000080000114                timervec
 *fill*         0x0000000080000116        0x2 
 .text          0x0000000080000118       0x3e trap.o
                0x0000000080000118                trapvec
 .text          0x0000000080000156       0xd6 trap_c.o
                0x0000000080000156                trap_init
                0x000000008000017c                external_interrupt_handler
                0x00000000800001bc                timer_irq_handler
                0x000000008000020e                reset_watchdog
 .text          0x000000008000022c      0x188 uart.o
                0x000000008000022c                uart_rx_handler
                0x0000000080000256                uart_init
                0x0000000080000298                putc
                0x00000000800002d6                putchar
                0x0000000080000314                puts
                0x0000000080000356                putc_direct
                0x000000008000037a                puts_direct
 .text          0x00000000800003b4       0xd4 plic.o
                0x00000000800003b4                plic_init
                0x0000000080000408                plic_enable
                0x0000000080000448                plic_claim
                0x0000000080000464                plic_complete
 .text          0x0000000080000488      0xee8 fs.o
                0x00000000800004e8                virtio_blk_init
                0x0000000080000d6c                read_block
                0x0000000080000d96                read_superblock
                0x0000000080000dcc                read_inode
                0x0000000080000f10                read_data
                0x000000008000102a                dir_lookup
                0x0000000080001116                path_lookup
                0x0000000080001296                dump_inode
 .text          0x0000000080001370     0x2a10 main.o
                0x0000000080001370                sbrk
                0x0000000080001432                kalloc_pages
                0x0000000080001492                malloc
                0x000000008000156a                calloc
                0x00000000800015c6                free
                0x000000008000160c                strdup
                0x0000000080001666                strcmp
                0x00000000800016d0                strstr
                0x000000008000176e                memset
                0x00000000800017d2                memcmp
                0x000000008000185a                memmove
                0x000000008000193a                memcpy
                0x000000008000196e                strncmp
                0x00000000800019fc                strncpy
                0x0000000080001a82                strlen
                0x0000000080001abc                strncat
                0x0000000080001b3e                strtok
                0x0000000080001ca2                exit
                0x0000000080001cb2                itoa
                0x0000000080001df4                vasprintf
                0x00000000800020a0                snprintf
                0x00000000800024d0                vsnprintf
                0x0000000080002900                printint
                0x0000000080002a16                printlong
                0x0000000080002b14                printlonglong
                0x0000000080002c12                printf
                0x0000000080002f3a                perror
                0x0000000080002f58                panic
                0x0000000080002f76                mycpu
                0x0000000080003056                initlock
                0x000000008000308a                acquire
                0x00000000800030de                release
                0x0000000080003128                holding
                0x0000000080003168                push_off
                0x00000000800031b4                pop_off
                0x0000000080003228                kinit
                0x0000000080003262                freerange
                0x00000000800032b6                kfree
                0x000000008000334e                kalloc
                0x00000000800033b2                walk
                0x0000000080003498                mappages
                0x00000000800035a8                dump_physical_memory
                0x0000000080003672                vmprint_rec
                0x0000000080003804                vmprint
                0x0000000080003832                make_satp
                0x000000008000385c                enable_mmu
                0x000000008000388a                mmu_init
                0x000000008000394c                walkaddr
                0x00000000800039bc                copyout
                0x0000000080003ae4                enable_timer_interrupts
                0x0000000080003b38                disable_timer_interrupts
                0x0000000080003b72                timer_reset
                0x0000000080003b9e                timer_handler
                0x0000000080003ca0                main

.rodata         0x0000000080003d80      0x467
 *(.rodata*)
 .rodata        0x0000000080003d80       0x10 trap_c.o
 .rodata        0x0000000080003d90      0x112 fs.o
 *fill*         0x0000000080003ea2        0x6 
 .rodata        0x0000000080003ea8      0x33f main.o

.srodata        0x00000000800041e8        0x4
 .srodata       0x00000000800041e8        0x4 trap_c.o
                0x00000000800041e8                watchdog_timeout

.rela.dyn       0x00000000800041f0        0x0
 .rela.text     0x00000000800041f0        0x0 start.o

.data           0x00000000800041f0     0x27a0
 *(.data*)
 .data          0x00000000800041f0        0x0 start.o
 .data          0x00000000800041f0        0x0 swtch.o
 .data          0x00000000800041f0        0x0 trap.o
 .data          0x00000000800041f0        0x0 trap_c.o
 .data          0x00000000800041f0        0x0 uart.o
 .data          0x00000000800041f0        0x0 plic.o
 .data          0x00000000800041f0        0x0 fs.o
 .data          0x00000000800041f0     0x27a0 main.o
                0x00000000800041f0                hello_elf
                0x00000000800055d8                hello2_elf

.sdata          0x0000000080006990       0x10
 *(.sdata*)
 .sdata         0x0000000080006990       0x10 main.o
                0x0000000080006990                hello_elf_len
                0x0000000080006994                hello2_elf_len

.bss            0x0000000080006a00      0xba0
 *(.bss)
 .bss           0x0000000080006a00        0x0 start.o
 .bss           0x0000000080006a00        0x0 swtch.o
 .bss           0x0000000080006a00        0x0 trap.o
 .bss           0x0000000080006a00        0x0 trap_c.o
 .bss           0x0000000080006a00        0x0 uart.o
 .bss           0x0000000080006a00        0x0 plic.o
 .bss           0x0000000080006a00      0x630 fs.o
 .bss           0x0000000080007030      0x540 main.o
                0x0000000080007030                gCPU
                0x0000000080007140                gProc
                0x0000000080007540                kmem
 *(.bss.*)
 *(.sbss)
 .sbss          0x0000000080007570        0x4 trap_c.o
                0x0000000080007570                watchdog_counter
 .sbss          0x0000000080007574        0x1 uart.o
                0x0000000080007574                last_key
 *fill*         0x0000000080007575        0x3 
 .sbss          0x0000000080007578       0x28 main.o
                0x0000000080007578                free_list
                0x0000000080007580                kernel_pagetable
                0x0000000080007588                gActiveProc
                0x000000008000758c                gNumProc
                0x0000000080007590                p
                0x0000000080007598                p2
 *(.sbss.*)
                [!provide]                        PROVIDE (_code_end = .)
                0x000000008006b5a0                . = (. + 0x64000)
                0x000000008006b5a0                PROVIDE (stack_top = .)
                0x000000008006c000                . = ALIGN (0x1000)
                0x000000008006c000                TRAPFRAME = .
                0x000000008006d000                . = (. + 0x1000)
                0x000000008006d000                PROVIDE (_end = .)
                0x00000000800d1000                . = (. + 0x64000)
                0x00000000800d1000                PROVIDE (_end2 = .)
                0x00000000800d9000                . = (. + 0x8000)
                0x00000000800d9000                PROVIDE (_end3 = .)

.riscv.attributes
                0x0000000000000000       0x6a
 .riscv.attributes
                0x0000000000000000       0x64 start.o
 .riscv.attributes
                0x0000000000000064       0x68 swtch.o
 .riscv.attributes
                0x00000000000000cc       0x68 trap.o
 .riscv.attributes
                0x0000000000000134       0x6a trap_c.o
 .riscv.attributes
                0x000000000000019e       0x6a uart.o
 .riscv.attributes
                0x0000000000000208       0x66 plic.o
 .riscv.attributes
                0x000000000000026e       0x66 fs.o
 .riscv.attributes
                0x00000000000002d4       0x6a main.o

.comment        0x0000000000000000       0x19
 .comment       0x0000000000000000       0x19 trap_c.o
                                         0x1a (size before relaxing)
 .comment       0x0000000000000019       0x1a uart.o
 .comment       0x0000000000000019       0x1a plic.o
 .comment       0x0000000000000019       0x1a fs.o
 .comment       0x0000000000000019       0x1a main.o

.note.GNU-stack
                0x0000000000000000        0x0
 .note.GNU-stack
                0x0000000000000000        0x0 trap_c.o
 .note.GNU-stack
                0x0000000000000000        0x0 uart.o
 .note.GNU-stack
                0x0000000000000000        0x0 plic.o
 .note.GNU-stack
                0x0000000000000000        0x0 fs.o
 .note.GNU-stack
                0x0000000000000000        0x0 main.o

.debug_info     0x0000000000000000     0x2db7
 *(.debug_info)
 .debug_info    0x0000000000000000       0x2e start.o
 .debug_info    0x000000000000002e       0x2e swtch.o
 .debug_info    0x000000000000005c       0x2e trap.o
 .debug_info    0x000000000000008a      0x18b trap_c.o
 .debug_info    0x0000000000000215      0x1b9 uart.o
 .debug_info    0x00000000000003ce      0x121 plic.o
 .debug_info    0x00000000000004ef      0xaed fs.o
 .debug_info    0x0000000000000fdc     0x1ddb main.o

.debug_abbrev   0x0000000000000000      0xa64
 *(.debug_abbrev)
 .debug_abbrev  0x0000000000000000       0x14 start.o
 .debug_abbrev  0x0000000000000014       0x14 swtch.o
 .debug_abbrev  0x0000000000000028       0x14 trap.o
 .debug_abbrev  0x000000000000003c      0x130 trap_c.o
 .debug_abbrev  0x000000000000016c       0xdb uart.o
 .debug_abbrev  0x0000000000000247       0xb2 plic.o
 .debug_abbrev  0x00000000000002f9      0x2ad fs.o
 .debug_abbrev  0x00000000000005a6      0x4be main.o

.debug_line     0x0000000000000000     0x3844
 *(.debug_line)
 .debug_line    0x0000000000000000       0x45 start.o
 .debug_line    0x0000000000000045      0x18d swtch.o
 .debug_line    0x00000000000001d2       0x9c trap.o
 .debug_line    0x000000000000026e       0xf1 trap_c.o
 .debug_line    0x000000000000035f      0x1d1 uart.o
 .debug_line    0x0000000000000530      0x11d plic.o
 .debug_line    0x000000000000064d      0x930 fs.o
 .debug_line    0x0000000000000f7d     0x28c7 main.o

.debug_str      0x0000000000000000      0x95a
 *(.debug_str)
 .debug_str     0x0000000000000000      0x95a start.o
                                         0x34 (size before relaxing)
 .debug_str     0x000000000000095a       0x34 swtch.o
 .debug_str     0x000000000000095a       0x33 trap.o
 .debug_str     0x000000000000095a      0x199 trap_c.o
 .debug_str     0x000000000000095a      0x142 uart.o
 .debug_str     0x000000000000095a      0x117 plic.o
 .debug_str     0x000000000000095a      0x40b fs.o
 .debug_str     0x000000000000095a      0x6b1 main.o

.debug_line_str
                0x0000000000000000       0xd5
 *(.debug_line_str)
 .debug_line_str
                0x0000000000000000       0xd5 trap_c.o
                                         0xb7 (size before relaxing)
 .debug_line_str
                0x00000000000000d5       0xb7 uart.o
 .debug_line_str
                0x00000000000000d5       0xb7 plic.o
 .debug_line_str
                0x00000000000000d5       0xbf fs.o
 .debug_line_str
                0x00000000000000d5       0xeb main.o
OUTPUT(kernel.elf elf64-littleriscv)

.debug_aranges  0x0000000000000000      0x180
 .debug_aranges
                0x0000000000000000       0x30 start.o
 .debug_aranges
                0x0000000000000030       0x30 swtch.o
 .debug_aranges
                0x0000000000000060       0x30 trap.o
 .debug_aranges
                0x0000000000000090       0x30 trap_c.o
 .debug_aranges
                0x00000000000000c0       0x30 uart.o
 .debug_aranges
                0x00000000000000f0       0x30 plic.o
 .debug_aranges
                0x0000000000000120       0x30 fs.o
 .debug_aranges
                0x0000000000000150       0x30 main.o

.debug_frame    0x0000000000000000     0x11d0
 .debug_frame   0x0000000000000000       0xd0 trap_c.o
 .debug_frame   0x00000000000000d0      0x160 uart.o
 .debug_frame   0x0000000000000230       0xd0 plic.o
 .debug_frame   0x0000000000000300      0x2a8 fs.o
 .debug_frame   0x00000000000005a8      0xc28 main.o

.debug_rnglists
                0x0000000000000000       0x22
 .debug_rnglists
                0x0000000000000000       0x22 main.o
