
There are no discarded input sections

Memory Configuration

Name             Origin             Length             Attributes
*default*        0x0000000000000000 0xffffffffffffffff

Linker script and memory map

LOAD entry.o
LOAD start.o
LOAD userret.o
LOAD trap.o
LOAD fs.o
LOAD plic.o
LOAD trap_c.o
LOAD main.o
                0x0000000000000010                STACK_PAGES = 0x10
                0x0000000000010000                STACK_MAX = (0x1000 * STACK_PAGES)
                0x0000000080000000                . = 0x80000000

.text           0x0000000080000000     0x789e
 *(.text*)
 .text          0x0000000080000000       0x3e entry.o
                0x0000000080000000                entry
 .text          0x000000008000003e      0x2fc start.o
                0x000000008000023c                start
 .text          0x000000008000033a        0x0 userret.o
 .text          0x000000008000033a        0x0 trap.o
 .text          0x000000008000033a     0x2238 fs.o
                0x000000008000039a                virtio_blk_init
                0x0000000080000c00                read_block
                0x0000000080000c2a                read_superblock
                0x0000000080000c60                read_inode
                0x0000000080000e68                read_data
                0x0000000080000f82                dir_lookup
                0x000000008000106e                path_lookup
                0x00000000800011ee                dump_inode
                0x0000000080001474                file_system_init
                0x000000008000155e                alloc_pipe
                0x00000000800015a8                free_pipe
                0x00000000800015de                alloc_file
                0x0000000080001636                free_file
                0x000000008000166a                pipealloc
                0x00000000800016e4                new_file_table
                0x0000000080001732                fs_init
                0x00000000800017ca                is_pipe
                0x0000000080001824                is_stdin
                0x000000008000187e                is_stdout
                0x00000000800018dc                pipe_open
                0x0000000080001bae                piperead
                0x0000000080001d60                pipewrite
                0x0000000080001eb0                fs_open
                0x0000000080002080                fs_read
                0x000000008000215c                fs_size
                0x00000000800021de                fs_close
                0x00000000800023ac                fs_exit
                0x00000000800023ee                fs_dup_table
                0x0000000080002486                free_fs_table
                0x000000008000249c                fs_dup2
 .text          0x0000000080002572      0x200 plic.o
                0x0000000080002572                plic_init
                0x00000000800025c6                plic_enable
                0x0000000080002606                plic_claim
                0x0000000080002622                plic_complete
                0x0000000080002670                uart_getc
                0x00000000800026a0                uart_readn
                0x00000000800026f2                uart_readline
 .text          0x0000000080002772       0x66 trap_c.o
                0x0000000080002772                trap_init
                0x0000000080002798                external_interrupt_handler
 .text          0x00000000800027d8     0x50c6 main.o
                0x00000000800027d8                sbrk
                0x000000008000285a                malloc
                0x0000000080002932                free
                0x0000000080002978                calloc
                0x00000000800029d4                strdup
                0x0000000080002a2e                strcmp
                0x0000000080002a98                strstr
                0x0000000080002b36                memset
                0x0000000080002b9a                memcmp
                0x0000000080002c22                memmove
                0x0000000080002d02                memcpy
                0x0000000080002d36                strncmp
                0x0000000080002dc4                strncpy
                0x0000000080002e4a                strlen
                0x0000000080002e84                puts
                0x0000000080002ebe                strncat
                0x0000000080002f40                strtok
                0x00000000800030a4                exit
                0x00000000800030b4                itoa
                0x00000000800031f6                vasprintf
                0x00000000800034a2                snprintf
                0x00000000800038d2                vsnprintf
                0x0000000080003d02                printint
                0x0000000080003e18                printlong
                0x0000000080003f16                printlonglong
                0x0000000080004014                printf
                0x00000000800043b8                kalloc_pages
                0x0000000080004418                perror
                0x0000000080004436                panic
                0x0000000080004460                mycpu
                0x000000008000447a                free_proc
                0x00000000800045f8                initlock
                0x000000008000462c                acquire
                0x0000000080004680                release
                0x00000000800046ca                holding
                0x000000008000470a                push_off
                0x0000000080004756                pop_off
                0x00000000800047ca                kinit
                0x0000000080004804                freerange
                0x0000000080004858                kfree
                0x000000008000491e                kalloc
                0x0000000080004982                walk
                0x0000000080004a50                mappages
                0x0000000080004b60                dump_physical_memory
                0x0000000080004c2a                vmprint_rec
                0x0000000080004dbc                vmprint
                0x0000000080004dea                enable_mmu
                0x0000000080004e1e                uart_rx_handler
                0x0000000080004e48                uart_init
                0x0000000080004e8e                putc
                0x0000000080004ed0                putchar
                0x0000000080004ef2                mmu_init
                0x000000008000509e                walkaddr
                0x000000008000510e                copyout
                0x00000000800051dc                copyin
                0x00000000800052a4                copyinstr
                0x00000000800053d2                setting_user_pagetable
                0x00000000800054cc                alloc_prog
                0x0000000080005bc4                free_pagetable
                0x0000000080005c76                get_current_file_table
                0x0000000080005cfe                my_intr_off
                0x0000000080005d2e                my_intr_on
                0x0000000080005d60                enable_timer_interrupts
                0x0000000080005daa                disable_timer_interrupts
                0x0000000080005dda                timer_reset
                0x0000000080005e06                remove_kernel_state
                0x0000000080005fae                kernel_yield
                0x0000000080006180                kernel_yield_return
                0x0000000080006326                timer_handler
                0x0000000080006536                console_init
                0x000000008000655c                Sys_write
                0x00000000800066be                Sys_exit
                0x0000000080006772                Sys_wait
                0x00000000800068ee                Sys_open
                0x00000000800069b0                Sys_fork
                0x0000000080006ad2                Sys_execv
                0x0000000080006edc                uvmunmap
                0x0000000080006f94                uvm_dealloc
                0x0000000080006ffe                uvm_alloc
                0x0000000080007110                Sys_brk
                0x00000000800071e2                Sys_dup2
                0x0000000080007272                Sys_pipe
                0x0000000080007348                Sys_read
                0x00000000800074b6                syscall_handler
                0x0000000080007678                timerinit
                0x00000000800076d0                get_current_proc
                0x00000000800076fa                global_init
                0x0000000080007764                main
                0x0000000080008000                . = ALIGN (0x1000)

.rodata         0x0000000080008000      0x5d8
 *(.rodata*)
 .rodata        0x0000000080008000      0x12a fs.o
 *fill*         0x000000008000812a        0x6 
 .rodata        0x0000000080008130      0x4a8 main.o

.data           0x00000000800085d8     0x2db8
 *(.data*)
 .data          0x00000000800085d8        0x0 entry.o
 .data          0x00000000800085d8        0x0 start.o
 .data          0x00000000800085d8        0x0 userret.o
 .data          0x00000000800085d8        0x0 trap.o
 .data          0x00000000800085d8        0x0 fs.o
 .data          0x00000000800085d8        0x0 plic.o
 .data          0x00000000800085d8        0x0 trap_c.o
 .data          0x00000000800085d8     0x2db8 main.o
                0x00000000800085d8                hello_elf
                0x0000000080009710                hello2_elf
                0x0000000080009fa0                msh_elf

.sdata          0x000000008000b390       0x18
 *(.sdata*)
 .sdata         0x000000008000b390       0x18 main.o
                0x000000008000b390                hello_elf_len
                0x000000008000b394                hello2_elf_len
                0x000000008000b398                msh_elf_len

.bss            0x000000008000b400     0x85b1
 *(.bss)
 .bss           0x000000008000b400        0x0 entry.o
 .bss           0x000000008000b400        0x0 start.o
 .bss           0x000000008000b400        0x0 userret.o
 .bss           0x000000008000b400        0x0 trap.o
 .bss           0x000000008000b400     0x8030 fs.o
                0x000000008000b400                gPipes
                0x000000008000e700                gFiles
 .bss           0x0000000080013430        0x0 plic.o
 .bss           0x0000000080013430        0x0 trap_c.o
 .bss           0x0000000080013430      0x558 main.o
                0x0000000080013430                gCPU
                0x0000000080013540                gProc
                0x0000000080013940                kmem
 *(.bss.*)
 *(.sbss)
 .sbss          0x0000000080013988       0x10 fs.o
                0x0000000080013988                gFreePipes
                0x0000000080013990                gFreeFiles
 .sbss          0x0000000080013998       0x19 main.o
                0x0000000080013998                kernel_pagetable
                0x00000000800139a0                free_list
                0x00000000800139a8                gNumProc
                0x00000000800139ac                gActiveProc
                0x00000000800139b0                last_key
 *(.sbss.*)
                [!provide]                        PROVIDE (_code_end = .)
                0x00000000800239b1                . = (. + STACK_MAX)
                0x00000000800239b1                PROVIDE (stack_top = .)
                0x0000000080024000                . = ALIGN (0x1000)
                0x0000000080024000                TRAPFRAME = .
                0x0000000080025000                . = (. + 0x1000)
                0x0000000080025000                . = ALIGN (0x1000)
                0x0000000080025000                TRAPFRAME2 = .
                0x0000000080026000                . = (. + 0x1000)
                0x0000000080026000                PROVIDE (TRAMPOLINE = .)

.trampoline     0x0000000080026000      0x48a
 *(.trampoline)
 .trampoline    0x0000000080026000      0x48a trap.o
                0x0000000080026000                trapvec
                0x00000000800261fc                swtch
                0x00000000800262be                enter_user
                0x00000000800262ec                mtvec
                0x0000000080026306                asm_memmove
                0x000000008002633c                yield
                0x00000000800263e4                yield_return

.rela.dyn       0x0000000080026490        0x0
 .rela.text     0x0000000080026490        0x0 entry.o
 .rela.trampoline
                0x0000000080026490        0x0 entry.o
                0x0000000080027000                . = ALIGN (0x1000)
                0x0000000080700000                . = 0x80700000
                0x0000000080700000                PROVIDE (COMMON = .)

.common         0x0000000080700000   0x1121ac
 *(.common)
 .common        0x0000000080700000   0x1121ac main.o
                0x0000000080700000                kernel_sp
                0x0000000080700008                user_sp
                0x0000000080700010                kernel_satp
                0x0000000080700018                user_satp
                0x0000000080700020                yield_stack
                0x0000000080710020                gKernelState
                0x00000000808121a0                gNumKernelState
                0x00000000808121a4                gKernelStateHead
                0x00000000808121a8                gKernelStateTail
                0x00000000808321ac                . = (. + 0x20000)
                0x0000000080833000                . = ALIGN (0x1000)
                0x0000000080833000                PROVIDE (_end = .)
                0x0000000080843000                . = (. + STACK_MAX)
                0x0000000080843000                PROVIDE (_end2 = .)
                0x000000008084b000                . = (. + 0x8000)
                0x000000008084b000                PROVIDE (_end3 = .)

.riscv.attributes
                0x0000000000000000       0x6a
 .riscv.attributes
                0x0000000000000000       0x64 entry.o
 .riscv.attributes
                0x0000000000000064       0x6a start.o
 .riscv.attributes
                0x00000000000000ce       0x64 userret.o
 .riscv.attributes
                0x0000000000000132       0x68 trap.o
 .riscv.attributes
                0x000000000000019a       0x66 fs.o
 .riscv.attributes
                0x0000000000000200       0x66 plic.o
 .riscv.attributes
                0x0000000000000266       0x6a trap_c.o
 .riscv.attributes
                0x00000000000002d0       0x6a main.o

.comment        0x0000000000000000       0x19
 .comment       0x0000000000000000       0x19 start.o
                                         0x1a (size before relaxing)
 .comment       0x0000000000000019       0x1a fs.o
 .comment       0x0000000000000019       0x1a plic.o
 .comment       0x0000000000000019       0x1a trap_c.o
 .comment       0x0000000000000019       0x1a main.o

.note.GNU-stack
                0x0000000000000000        0x0
 .note.GNU-stack
                0x0000000000000000        0x0 start.o
 .note.GNU-stack
                0x0000000000000000        0x0 fs.o
 .note.GNU-stack
                0x0000000000000000        0x0 plic.o
 .note.GNU-stack
                0x0000000000000000        0x0 trap_c.o
 .note.GNU-stack
                0x0000000000000000        0x0 main.o

.debug_info     0x0000000000000000     0x5cde
 *(.debug_info)
 .debug_info    0x0000000000000000       0x2e entry.o
 .debug_info    0x000000000000002e      0x3b1 start.o
 .debug_info    0x00000000000003df       0x2e trap.o
 .debug_info    0x000000000000040d     0x199b fs.o
 .debug_info    0x0000000000001da8      0x240 plic.o
 .debug_info    0x0000000000001fe8      0x101 trap_c.o
 .debug_info    0x00000000000020e9     0x3bf5 main.o

.debug_abbrev   0x0000000000000000      0xd50
 *(.debug_abbrev)
 .debug_abbrev  0x0000000000000000       0x14 entry.o
 .debug_abbrev  0x0000000000000014      0x149 start.o
 .debug_abbrev  0x000000000000015d       0x14 trap.o
 .debug_abbrev  0x0000000000000171      0x419 fs.o
 .debug_abbrev  0x000000000000058a      0x13b plic.o
 .debug_abbrev  0x00000000000006c5       0xd6 trap_c.o
 .debug_abbrev  0x000000000000079b      0x5b5 main.o

.debug_line     0x0000000000000000     0x70ea
 *(.debug_line)
 .debug_line    0x0000000000000000       0x43 entry.o
 .debug_line    0x0000000000000043      0x2e3 start.o
 .debug_line    0x0000000000000326      0x71c trap.o
 .debug_line    0x0000000000000a42     0x1c71 fs.o
 .debug_line    0x00000000000026b3      0x251 plic.o
 .debug_line    0x0000000000002904       0xa5 trap_c.o
 .debug_line    0x00000000000029a9     0x4741 main.o

.debug_str      0x0000000000000000     0x1129
 *(.debug_str)
 .debug_str     0x0000000000000000     0x1129 entry.o
                                         0x34 (size before relaxing)
 .debug_str     0x0000000000001129      0x1af start.o
 .debug_str     0x0000000000001129       0x33 trap.o
 .debug_str     0x0000000000001129      0x79f fs.o
 .debug_str     0x0000000000001129      0x177 plic.o
 .debug_str     0x0000000000001129      0x14b trap_c.o
 .debug_str     0x0000000000001129      0xe1f main.o

.debug_line_str
                0x0000000000000000       0xe9
 *(.debug_line_str)
 .debug_line_str
                0x0000000000000000       0xe9 start.o
                                         0xba (size before relaxing)
 .debug_line_str
                0x00000000000000e9       0xc8 fs.o
 .debug_line_str
                0x00000000000000e9       0xb7 plic.o
 .debug_line_str
                0x00000000000000e9       0xb7 trap_c.o
 .debug_line_str
                0x00000000000000e9       0xfa main.o
OUTPUT(kernel.elf elf64-littleriscv)

.debug_aranges  0x0000000000000000      0x150
 .debug_aranges
                0x0000000000000000       0x30 entry.o
 .debug_aranges
                0x0000000000000030       0x30 start.o
 .debug_aranges
                0x0000000000000060       0x30 trap.o
 .debug_aranges
                0x0000000000000090       0x30 fs.o
 .debug_aranges
                0x00000000000000c0       0x30 plic.o
 .debug_aranges
                0x00000000000000f0       0x30 trap_c.o
 .debug_aranges
                0x0000000000000120       0x30 main.o

.debug_frame    0x0000000000000000     0x1fe0
 .debug_frame   0x0000000000000000      0x370 start.o
 .debug_frame   0x0000000000000370      0x770 fs.o
 .debug_frame   0x0000000000000ae0      0x198 plic.o
 .debug_frame   0x0000000000000c78       0x70 trap_c.o
 .debug_frame   0x0000000000000ce8     0x12f8 main.o

.debug_rnglists
                0x0000000000000000       0x6d
 .debug_rnglists
                0x0000000000000000       0x2d fs.o
 .debug_rnglists
                0x000000000000002d       0x40 main.o
