
There are no discarded input sections

Memory Configuration

Name             Origin             Length             Attributes
*default*        0x0000000000000000 0xffffffffffffffff

Linker script and memory map

LOAD start.o
LOAD swtch.o
LOAD main.o
                0x0000000080000000                . = 0x80000000

.text           0x0000000080000000      0x8f2
 *(.text*)
 .text          0x0000000080000000       0x40 start.o
                0x0000000080000000                _start
 .text          0x0000000080000040       0x74 swtch.o
                0x0000000080000040                swtch
 .text          0x00000000800000b4      0x83e main.o
                0x00000000800000b4                putc
                0x00000000800000ea                puts
                0x00000000800002aa                vprintf
                0x00000000800006f6                fprintf
                0x000000008000074a                printf
                0x0000000080000796                kinit
                0x00000000800007ba                freerange
                0x000000008000082e                kfree
                0x000000008000089e                kalloc
                0x00000000800008d4                main

.rodata         0x00000000800008f8       0x30
 *(.rodata*)
 .rodata        0x00000000800008f8       0x30 main.o

.rela.dyn       0x0000000080000928        0x0
 .rela.text     0x0000000080000928        0x0 start.o

.data           0x0000000080000928       0x11
 *(.data*)
 .data          0x0000000080000928        0x0 start.o
 .data          0x0000000080000928        0x0 swtch.o
 .data          0x0000000080000928       0x11 main.o

.sdata          0x0000000080000940        0x8
 *(.sdata*)
 .sdata         0x0000000080000940        0x8 main.o
                0x0000000080000940                uart
                0x0000000080008948                . = (. + 0x8000)
                0x0000000080008948                stack_top = .
                0x0000000080008948                end = .
OUTPUT(kernel.elf elf64-littleriscv)

.bss            0x0000000080008948       0x78
 .bss           0x0000000080008948        0x0 start.o
 .bss           0x0000000080008948        0x0 swtch.o
 .bss           0x0000000080008948       0x78 main.o
                0x0000000080008948                cpu

.sbss           0x00000000800089c0        0x8
 .sbss          0x00000000800089c0        0x8 main.o
                0x00000000800089c0                kmem

.riscv.attributes
                0x0000000000000000       0x53
 .riscv.attributes
                0x0000000000000000       0x4c start.o
 .riscv.attributes
                0x000000000000004c       0x4c swtch.o
 .riscv.attributes
                0x0000000000000098       0x47 main.o

.comment        0x0000000000000000       0x22
 .comment       0x0000000000000000       0x22 main.o
                                         0x23 (size before relaxing)

.debug_line     0x0000000000000000      0x752
 .debug_line    0x0000000000000000       0x45 start.o
 .debug_line    0x0000000000000045       0xe1 swtch.o
 .debug_line    0x0000000000000126      0x62c main.o

.debug_info     0x0000000000000000      0x666
 .debug_info    0x0000000000000000       0x2e start.o
 .debug_info    0x000000000000002e       0x2e swtch.o
 .debug_info    0x000000000000005c      0x60a main.o

.debug_abbrev   0x0000000000000000      0x26a
 .debug_abbrev  0x0000000000000000       0x14 start.o
 .debug_abbrev  0x0000000000000014       0x14 swtch.o
 .debug_abbrev  0x0000000000000028      0x242 main.o

.debug_aranges  0x0000000000000000       0x90
 .debug_aranges
                0x0000000000000000       0x30 start.o
 .debug_aranges
                0x0000000000000030       0x30 swtch.o
 .debug_aranges
                0x0000000000000060       0x30 main.o

.debug_str      0x0000000000000000      0x1cd
 .debug_str     0x0000000000000000      0x1cd start.o
                                         0x2e (size before relaxing)
 .debug_str     0x00000000000001cd       0x2e swtch.o
 .debug_str     0x00000000000001cd      0x1c3 main.o

.debug_line_str
                0x0000000000000000       0x5a
 .debug_line_str
                0x0000000000000000       0x5a main.o
                                         0x82 (size before relaxing)

.debug_frame    0x0000000000000000      0x248
 .debug_frame   0x0000000000000000      0x248 main.o
